target datalayout = "e-m:e-p270:32:32-p271:32:32-p272:64:64-i64:64-i128:128-f80:128-n8:16:32:64-S128"
target triple = "x86_64-pc-linux-gnu"

%struct.luaL_Buffer = type { ptr, i64, i64, ptr, %union.anon }
%union.anon = type { double, [1016 x i8] }

@.str.12 = private unnamed_addr constant [19 x i8] c"value out of range\00", align 1
@.str.13 = private unnamed_addr constant [3 x i8] c"%U\00", align 1

; Function Attrs: nounwind uwtable
define internal void @pushutfchar(ptr noundef %0, i32 noundef %1) #0 {
  %3 = alloca ptr, align 8
  %4 = alloca i32, align 4
  %5 = alloca i64, align 8
  store ptr %0, ptr %3, align 8, !tbaa !4
  store i32 %1, ptr %4, align 4, !tbaa !16
  call void @llvm.lifetime.start.p0(i64 8, ptr %5) #4
  %6 = load ptr, ptr %3, align 8, !tbaa !4
  %7 = load i32, ptr %4, align 4, !tbaa !16
  %8 = call i64 @luaL_checkinteger(ptr noundef %6, i32 noundef %7)
  store i64 %8, ptr %5, align 8, !tbaa !11
  %9 = load i64, ptr %5, align 8, !tbaa !11
  %10 = icmp ule i64 %9, 2147483647
  %11 = zext i1 %10 to i32
  %12 = icmp ne i32 %11, 0
  %13 = zext i1 %12 to i32
  %14 = sext i32 %13 to i64
  %15 = call i64 @llvm.expect.i64(i64 %14, i64 1)
  %16 = icmp ne i64 %15, 0
  br i1 %16, label %21, label %17

17:                                               ; preds = %2
  %18 = load ptr, ptr %3, align 8, !tbaa !4
  %19 = load i32, ptr %4, align 4, !tbaa !16
  %20 = call i32 @luaL_argerror(ptr noundef %18, i32 noundef %19, ptr noundef @.str.12)
  br label %21

21:                                               ; preds = %17, %2
  %22 = load ptr, ptr %3, align 8, !tbaa !4
  %23 = load i64, ptr %5, align 8, !tbaa !11
  %24 = call ptr (ptr, ptr, ...) @lua_pushfstring(ptr noundef %22, ptr noundef @.str.13, i64 noundef %23)
  call void @llvm.lifetime.end.p0(i64 8, ptr %5) #4
  ret void
}

; Function Attrs: nounwind uwtable
define internal i32 @utfchar(ptr noundef %0) #0 {
  %2 = alloca ptr, align 8
  %3 = alloca i32, align 4
  %4 = alloca i32, align 4
  %5 = alloca %struct.luaL_Buffer, align 8
  store ptr %0, ptr %2, align 8, !tbaa !4
  call void @llvm.lifetime.start.p0(i64 4, ptr %3) #4
  %6 = load ptr, ptr %2, align 8, !tbaa !4
  %7 = call i32 @lua_gettop(ptr noundef %6)
  store i32 %7, ptr %3, align 4, !tbaa !16
  %8 = load i32, ptr %3, align 4, !tbaa !16
  %9 = icmp eq i32 %8, 1
  br i1 %9, label %10, label %12

10:                                               ; preds = %1
  %11 = load ptr, ptr %2, align 8, !tbaa !4
  call void @pushutfchar(ptr noundef %11, i32 noundef 1)
  br label %25

12:                                               ; preds = %1
  call void @llvm.lifetime.start.p0(i64 4, ptr %4) #4
  call void @llvm.lifetime.start.p0(i64 1056, ptr %5) #4
  %13 = load ptr, ptr %2, align 8, !tbaa !4
  call void @luaL_buffinit(ptr noundef %13, ptr noundef %5)
  store i32 1, ptr %4, align 4, !tbaa !16
  br label %14

14:                                               ; preds = %21, %12
  %15 = load i32, ptr %4, align 4, !tbaa !16
  %16 = load i32, ptr %3, align 4, !tbaa !16
  %17 = icmp sle i32 %15, %16
  br i1 %17, label %18, label %24

18:                                               ; preds = %14
  %19 = load ptr, ptr %2, align 8, !tbaa !4
  %20 = load i32, ptr %4, align 4, !tbaa !16
  call void @pushutfchar(ptr noundef %19, i32 noundef %20)
  call void @luaL_addvalue(ptr noundef %5)
  br label %21

21:                                               ; preds = %18
  %22 = load i32, ptr %4, align 4, !tbaa !16
  %23 = add nsw i32 %22, 1
  store i32 %23, ptr %4, align 4, !tbaa !16
  br label %14

24:                                               ; preds = %14
  call void @luaL_pushresult(ptr noundef %5)
  call void @llvm.lifetime.end.p0(i64 1056, ptr %5) #4
  call void @llvm.lifetime.end.p0(i64 4, ptr %4) #4
  br label %25

25:                                               ; preds = %24, %10
  call void @llvm.lifetime.end.p0(i64 4, ptr %3) #4
  ret i32 1
}