; Function Attrs: nounwind uwtable
define internal noundef i32 @utfchar(ptr noundef %0) #0 {
  %2 = alloca %struct.luaL_Buffer, align 8
  %3 = tail call i32 @lua_gettop(ptr noundef %0) #3
  %4 = icmp eq i32 %3, 1
  br i1 %4, label %5, label %11

5:                                                ; preds = %1
  %6 = tail call i64 @luaL_checkinteger(ptr noundef %0, i32 noundef 1) #3
  %7 = icmp ult i64 %6, 2147483648
  br i1 %7, label %pushutfchar.exit, label %8, !prof !10

8:                                                ; preds = %5
  %9 = tail call i32 @luaL_argerror(ptr noundef %0, i32 noundef 1, ptr noundef nonnull @.str.12) #3
  br label %pushutfchar.exit

pushutfchar.exit:                                 ; preds = %5, %8
  %10 = tail call ptr (ptr, ptr, ...) @lua_pushfstring(ptr noundef %0, ptr noundef nonnull @.str.13, i64 noundef %6) #3
  br label %18

11:                                               ; preds = %1
  call void @llvm.lifetime.start.p0(i64 1056, ptr nonnull %2) #3
  call void @luaL_buffinit(ptr noundef %0, ptr noundef nonnull %2) #3
  %.not10 = icmp slt i32 %3, 1
  br i1 %.not10, label %._crit_edge, label %.lr.ph

.lr.ph:                                           ; preds = %11, %pushutfchar.exit9
  %.011 = phi i32 [ %17, %pushutfchar.exit9 ], [ 1, %11 ]
  %12 = call i64 @luaL_checkinteger(ptr noundef %0, i32 noundef %.011) #3
  %13 = icmp ult i64 %12, 2147483648
  br i1 %13, label %pushutfchar.exit9, label %14, !prof !10

14:                                               ; preds = %.lr.ph
  %15 = call i32 @luaL_argerror(ptr noundef %0, i32 noundef %.011, ptr noundef nonnull @.str.12) #3
  br label %pushutfchar.exit9

pushutfchar.exit9:                                ; preds = %.lr.ph, %14
  %16 = call ptr (ptr, ptr, ...) @lua_pushfstring(ptr noundef %0, ptr noundef nonnull @.str.13, i64 noundef %12) #3
  call void @luaL_addvalue(ptr noundef nonnull %2) #3
  %17 = add nuw i32 %.011, 1
  %exitcond.not = icmp eq i32 %.011, %3
  br i1 %exitcond.not, label %._crit_edge, label %.lr.ph

._crit_edge:                                      ; preds = %pushutfchar.exit9, %11
  call void @luaL_pushresult(ptr noundef nonnull %2) #3
  call void @llvm.lifetime.end.p0(i64 1056, ptr nonnull %2) #3
  br label %18

18:                                               ; preds = %._crit_edge, %pushutfchar.exit
  ret i32 1
}